; Function Attrs: mustprogress uwtable
define dso_local void @_ZN14ArgumentParser8Instance4BindERb(ptr noundef nonnull align 8 captures(none) dereferenceable(97) %0, ptr noundef nonnull writeonly align 1 captures(none) dereferenceable(1) initializes((0, 1)) %1) local_unnamed_addr #4 align 2 personality ptr @__gxx_personality_v0 {
_ZNSt8functionIFN14ArgumentParser8ContinueESt17basic_string_viewIcSt11char_traitsIcEEEEC2EOS7_.exit.i.i:
  %2 = alloca %"class.std::function.23", align 8
  store i8 1, ptr %1, align 1, !tbaa !37
  call void @llvm.lifetime.start.p0(i64 32, ptr nonnull %2) #23
  %3 = getelementptr inbounds nuw i8, ptr %2, i64 24
  %4 = getelementptr inbounds nuw i8, ptr %0, i64 64
  call void @llvm.memcpy.p0.p0.i64(ptr noundef nonnull align 8 dereferenceable(32) %2, ptr noundef nonnull align 8 dereferenceable(32) %4, i64 16, i1 false), !tbaa.struct !27
  tail call void @llvm.memset.p0.i64(ptr noundef nonnull align 8 dereferenceable(16) %4, i8 0, i64 16, i1 false)
  %5 = getelementptr inbounds nuw i8, ptr %2, i64 16
  %6 = getelementptr inbounds nuw i8, ptr %0, i64 80
  %7 = load ptr, ptr %6, align 8, !tbaa !29
  store ptr %7, ptr %5, align 8, !tbaa !29
  store ptr null, ptr %6, align 8, !tbaa !29
  %8 = getelementptr inbounds nuw i8, ptr %0, i64 88
  %9 = load ptr, ptr %8, align 8, !tbaa !29
  store ptr %9, ptr %3, align 8, !tbaa !29
  store ptr null, ptr %8, align 8, !tbaa !29
  %.not.i.i.i = icmp eq ptr %7, null
  br i1 %.not.i.i.i, label %_ZNSt14_Function_baseD2Ev.exit, label %10

10:                                               ; preds = %_ZNSt8functionIFN14ArgumentParser8ContinueESt17basic_string_viewIcSt11char_traitsIcEEEEC2EOS7_.exit.i.i
  %11 = invoke noundef zeroext i1 %7(ptr noundef nonnull align 8 dereferenceable(32) %2, ptr noundef nonnull align 8 dereferenceable(32) %2, i32 noundef 3)
          to label %_ZNSt14_Function_baseD2Ev.exit unwind label %12

12:                                               ; preds = %10
  %13 = landingpad { ptr, i32 }
          catch ptr null
  %14 = extractvalue { ptr, i32 } %13, 0
  call void @__clang_call_terminate(ptr %14) #24
  unreachable

_ZNSt14_Function_baseD2Ev.exit:                   ; preds = %10, %_ZNSt8functionIFN14ArgumentParser8ContinueESt17basic_string_viewIcSt11char_traitsIcEEEEC2EOS7_.exit.i.i
  call void @llvm.lifetime.end.p0(i64 32, ptr nonnull %2) #23
  %15 = getelementptr inbounds nuw i8, ptr %0, i64 56
  store i64 0, ptr %15, align 8, !tbaa !30
  ret void
}